target datalayout = "e-m:e-p270:32:32-p271:32:32-p272:64:64-i64:64-i128:128-f80:128-n8:16:32:64-S128"
target triple = "x86_64-pc-linux-gnu"

%struct.t_complex = type { float, float }

@.str.1 = private unnamed_addr constant [124 x i8] c"generated/home/dtcxzyw/WorkSpace/Projects/compilers/llvm-opt-benchmark/bench/gromacs/gromacs/src/gromacs/gmxana/sfactor.cpp\00", align 1
@.str.2 = private unnamed_addr constant [2 x i8] c"t\00", align 1
@.str.3 = private unnamed_addr constant [5 x i8] c"t[0]\00", align 1
@.str.4 = private unnamed_addr constant [8 x i8] c"t[0][0]\00", align 1

; Function Attrs: mustprogress uwtable
define internal void @_ZL13gmx_snew_implI9t_complexEvPKcS2_iRPT_m(ptr noundef %0, ptr noundef %1, i32 noundef %2, ptr noundef nonnull align 8 dereferenceable(8) %3, i64 noundef %4) #0 {
  %6 = alloca ptr, align 8
  %7 = alloca ptr, align 8
  %8 = alloca i32, align 4
  %9 = alloca ptr, align 8
  %10 = alloca i64, align 8
  store ptr %0, ptr %6, align 8
  store ptr %1, ptr %7, align 8
  store i32 %2, ptr %8, align 4
  store ptr %3, ptr %9, align 8
  store i64 %4, ptr %10, align 8
  %11 = load ptr, ptr %6, align 8
  %12 = load ptr, ptr %7, align 8
  %13 = load i32, ptr %8, align 4
  %14 = load i64, ptr %10, align 8
  %15 = call noundef ptr @_Z11save_callocPKcS0_imm(ptr noundef %11, ptr noundef %12, i32 noundef %13, i64 noundef %14, i64 noundef 8)
  %16 = load ptr, ptr %9, align 8
  store ptr %15, ptr %16, align 8
  ret void
}

; Function Attrs: mustprogress uwtable
define internal void @_ZL13gmx_snew_implIP9t_complexEvPKcS3_iRPT_m(ptr noundef %0, ptr noundef %1, i32 noundef %2, ptr noundef nonnull align 8 dereferenceable(8) %3, i64 noundef %4) #0 {
  %6 = alloca ptr, align 8
  %7 = alloca ptr, align 8
  %8 = alloca i32, align 4
  %9 = alloca ptr, align 8
  %10 = alloca i64, align 8
  store ptr %0, ptr %6, align 8
  store ptr %1, ptr %7, align 8
  store i32 %2, ptr %8, align 4
  store ptr %3, ptr %9, align 8
  store i64 %4, ptr %10, align 8
  %11 = load ptr, ptr %6, align 8
  %12 = load ptr, ptr %7, align 8
  %13 = load i32, ptr %8, align 4
  %14 = load i64, ptr %10, align 8
  %15 = call noundef ptr @_Z11save_callocPKcS0_imm(ptr noundef %11, ptr noundef %12, i32 noundef %13, i64 noundef %14, i64 noundef 8)
  %16 = load ptr, ptr %9, align 8
  store ptr %15, ptr %16, align 8
  ret void
}

; Function Attrs: mustprogress uwtable
define internal void @_ZL13gmx_snew_implIPP9t_complexEvPKcS4_iRPT_m(ptr noundef %0, ptr noundef %1, i32 noundef %2, ptr noundef nonnull align 8 dereferenceable(8) %3, i64 noundef %4) #0 {
  %6 = alloca ptr, align 8
  %7 = alloca ptr, align 8
  %8 = alloca i32, align 4
  %9 = alloca ptr, align 8
  %10 = alloca i64, align 8
  store ptr %0, ptr %6, align 8
  store ptr %1, ptr %7, align 8
  store i32 %2, ptr %8, align 4
  store ptr %3, ptr %9, align 8
  store i64 %4, ptr %10, align 8
  %11 = load ptr, ptr %6, align 8
  %12 = load ptr, ptr %7, align 8
  %13 = load i32, ptr %8, align 4
  %14 = load i64, ptr %10, align 8
  %15 = call noundef ptr @_Z11save_callocPKcS0_imm(ptr noundef %11, ptr noundef %12, i32 noundef %13, i64 noundef %14, i64 noundef 8)
  %16 = load ptr, ptr %9, align 8
  store ptr %15, ptr %16, align 8
  ret void
}

; Function Attrs: mustprogress uwtable
define noundef ptr @_Z20rc_tensor_allocationiii(i32 noundef %0, i32 noundef %1, i32 noundef %2) #0 {
  %4 = alloca i32, align 4
  %5 = alloca i32, align 4
  %6 = alloca i32, align 4
  %7 = alloca ptr, align 8
  %8 = alloca i32, align 4
  %9 = alloca i32, align 4
  store i32 %0, ptr %4, align 4
  store i32 %1, ptr %5, align 4
  store i32 %2, ptr %6, align 4
  %10 = load i32, ptr %4, align 4
  %11 = sext i32 %10 to i64
  call void @_ZL13gmx_snew_implIPP9t_complexEvPKcS4_iRPT_m(ptr noundef @.str.2, ptr noundef @.str.1, i32 noundef 138, ptr noundef nonnull align 8 dereferenceable(8) %7, i64 noundef %11)
  %12 = load ptr, ptr %7, align 8
  %13 = getelementptr inbounds ptr, ptr %12, i64 0
  %14 = load i32, ptr %4, align 4
  %15 = load i32, ptr %5, align 4
  %16 = mul nsw i32 %14, %15
  %17 = sext i32 %16 to i64
  call void @_ZL13gmx_snew_implIP9t_complexEvPKcS3_iRPT_m(ptr noundef @.str.3, ptr noundef @.str.1, i32 noundef 139, ptr noundef nonnull align 8 dereferenceable(8) %13, i64 noundef %17)
  %18 = load ptr, ptr %7, align 8
  %19 = getelementptr inbounds ptr, ptr %18, i64 0
  %20 = load ptr, ptr %19, align 8
  %21 = getelementptr inbounds ptr, ptr %20, i64 0
  %22 = load i32, ptr %4, align 4
  %23 = load i32, ptr %5, align 4
  %24 = mul nsw i32 %22, %23
  %25 = load i32, ptr %6, align 4
  %26 = mul nsw i32 %24, %25
  %27 = sext i32 %26 to i64
  call void @_ZL13gmx_snew_implI9t_complexEvPKcS2_iRPT_m(ptr noundef @.str.4, ptr noundef @.str.1, i32 noundef 140, ptr noundef nonnull align 8 dereferenceable(8) %21, i64 noundef %27)
  store i32 1, ptr %9, align 4
  br label %28

28:                                               ; preds = %50, %3
  %29 = load i32, ptr %9, align 4
  %30 = load i32, ptr %5, align 4
  %31 = icmp slt i32 %29, %30
  br i1 %31, label %32, label %53

32:                                               ; preds = %28
  %33 = load ptr, ptr %7, align 8
  %34 = getelementptr inbounds ptr, ptr %33, i64 0
  %35 = load ptr, ptr %34, align 8
  %36 = load i32, ptr %9, align 4
  %37 = sub nsw i32 %36, 1
  %38 = sext i32 %37 to i64
  %39 = getelementptr inbounds ptr, ptr %35, i64 %38
  %40 = load ptr, ptr %39, align 8
  %41 = load i32, ptr %6, align 4
  %42 = sext i32 %41 to i64
  %43 = getelementptr inbounds %struct.t_complex, ptr %40, i64 %42
  %44 = load ptr, ptr %7, align 8
  %45 = getelementptr inbounds ptr, ptr %44, i64 0
  %46 = load ptr, ptr %45, align 8
  %47 = load i32, ptr %9, align 4
  %48 = sext i32 %47 to i64
  %49 = getelementptr inbounds ptr, ptr %46, i64 %48
  store ptr %43, ptr %49, align 8
  br label %50

50:                                               ; preds = %32
  %51 = load i32, ptr %9, align 4
  %52 = add nsw i32 %51, 1
  store i32 %52, ptr %9, align 4
  br label %28, !llvm.loop !8

53:                                               ; preds = %28
  store i32 1, ptr %8, align 4
  br label %54

54:                                               ; preds = %121, %53
  %55 = load i32, ptr %8, align 4
  %56 = load i32, ptr %4, align 4
  %57 = icmp slt i32 %55, %56
  br i1 %57, label %58, label %124

58:                                               ; preds = %54
  %59 = load ptr, ptr %7, align 8
  %60 = load i32, ptr %8, align 4
  %61 = sub nsw i32 %60, 1
  %62 = sext i32 %61 to i64
  %63 = getelementptr inbounds ptr, ptr %59, i64 %62
  %64 = load ptr, ptr %63, align 8
  %65 = load i32, ptr %5, align 4
  %66 = sext i32 %65 to i64
  %67 = getelementptr inbounds ptr, ptr %64, i64 %66
  %68 = load ptr, ptr %7, align 8
  %69 = load i32, ptr %8, align 4
  %70 = sext i32 %69 to i64
  %71 = getelementptr inbounds ptr, ptr %68, i64 %70
  store ptr %67, ptr %71, align 8
  %72 = load ptr, ptr %7, align 8
  %73 = load i32, ptr %8, align 4
  %74 = sub nsw i32 %73, 1
  %75 = sext i32 %74 to i64
  %76 = getelementptr inbounds ptr, ptr %72, i64 %75
  %77 = load ptr, ptr %76, align 8
  %78 = getelementptr inbounds ptr, ptr %77, i64 0
  %79 = load ptr, ptr %78, align 8
  %80 = load i32, ptr %5, align 4
  %81 = load i32, ptr %6, align 4
  %82 = mul nsw i32 %80, %81
  %83 = sext i32 %82 to i64
  %84 = getelementptr inbounds %struct.t_complex, ptr %79, i64 %83
  %85 = load ptr, ptr %7, align 8
  %86 = load i32, ptr %8, align 4
  %87 = sext i32 %86 to i64
  %88 = getelementptr inbounds ptr, ptr %85, i64 %87
  %89 = load ptr, ptr %88, align 8
  %90 = getelementptr inbounds ptr, ptr %89, i64 0
  store ptr %84, ptr %90, align 8
  store i32 1, ptr %9, align 4
  br label %91

91:                                               ; preds = %117, %58
  %92 = load i32, ptr %9, align 4
  %93 = load i32, ptr %5, align 4
  %94 = icmp slt i32 %92, %93
  br i1 %94, label %95, label %120

95:                                               ; preds = %91
  %96 = load ptr, ptr %7, align 8
  %97 = load i32, ptr %8, align 4
  %98 = sext i32 %97 to i64
  %99 = getelementptr inbounds ptr, ptr %96, i64 %98
  %100 = load ptr, ptr %99, align 8
  %101 = load i32, ptr %9, align 4
  %102 = sub nsw i32 %101, 1
  %103 = sext i32 %102 to i64
  %104 = getelementptr inbounds ptr, ptr %100, i64 %103
  %105 = load ptr, ptr %104, align 8
  %106 = load i32, ptr %6, align 4
  %107 = sext i32 %106 to i64
  %108 = getelementptr inbounds %struct.t_complex, ptr %105, i64 %107
  %109 = load ptr, ptr %7, align 8
  %110 = load i32, ptr %8, align 4
  %111 = sext i32 %110 to i64
  %112 = getelementptr inbounds ptr, ptr %109, i64 %111
  %113 = load ptr, ptr %112, align 8
  %114 = load i32, ptr %9, align 4
  %115 = sext i32 %114 to i64
  %116 = getelementptr inbounds ptr, ptr %113, i64 %115
  store ptr %108, ptr %116, align 8
  br label %117

117:                                              ; preds = %95
  %118 = load i32, ptr %9, align 4
  %119 = add nsw i32 %118, 1
  store i32 %119, ptr %9, align 4
  br label %91, !llvm.loop !9

120:                                              ; preds = %91
  br label %121

121:                                              ; preds = %120
  %122 = load i32, ptr %8, align 4
  %123 = add nsw i32 %122, 1
  store i32 %123, ptr %8, align 4
  br label %54, !llvm.loop !10

124:                                              ; preds = %54
  %125 = load ptr, ptr %7, align 8
  ret ptr %125
}