; Function Attrs: mustprogress uwtable
define noundef ptr @_Z20rc_tensor_allocationiii(i32 noundef %0, i32 noundef %1, i32 noundef %2) local_unnamed_addr #0 {
  %4 = sext i32 %0 to i64
  %5 = tail call noundef ptr @_Z11save_callocPKcS0_imm(ptr noundef nonnull @.str.2, ptr noundef nonnull @.str.1, i32 noundef 138, i64 noundef %4, i64 noundef 8)
  %6 = mul nsw i32 %1, %0
  %7 = sext i32 %6 to i64
  %8 = tail call noundef ptr @_Z11save_callocPKcS0_imm(ptr noundef nonnull @.str.3, ptr noundef nonnull @.str.1, i32 noundef 139, i64 noundef %7, i64 noundef 8)
  store ptr %8, ptr %5, align 8
  %9 = mul nsw i32 %6, %2
  %10 = sext i32 %9 to i64
  %11 = tail call noundef ptr @_Z11save_callocPKcS0_imm(ptr noundef nonnull @.str.4, ptr noundef nonnull @.str.1, i32 noundef 140, i64 noundef %10, i64 noundef 8)
  store ptr %11, ptr %8, align 8
  %12 = icmp sgt i32 %1, 1
  br i1 %12, label %.lr.ph, label %.preheader.thread

.lr.ph:                                           ; preds = %3
  %13 = sext i32 %2 to i64
  %wide.trip.count = zext nneg i32 %1 to i64
  br label %37

.preheader:                                       ; preds = %37
  %invariant.gep = getelementptr i8, ptr %5, i64 -8
  %14 = icmp sgt i32 %0, 1
  br i1 %14, label %.lr.ph42, label %._crit_edge43

.preheader.thread:                                ; preds = %3
  %15 = icmp sgt i32 %0, 1
  br i1 %15, label %.lr.ph42.thread, label %._crit_edge43

.lr.ph42.thread:                                  ; preds = %.preheader.thread
  %16 = sext i32 %1 to i64
  %17 = mul nsw i32 %2, %1
  %18 = sext i32 %17 to i64
  br label %.lr.ph42.split.preheader

.lr.ph42:                                         ; preds = %.preheader
  %19 = zext nneg i32 %1 to i64
  %20 = mul nsw i32 %2, %1
  %21 = sext i32 %20 to i64
  %22 = sext i32 %2 to i64
  br i1 %12, label %.lr.ph40.us.preheader, label %.lr.ph42.split.preheader

.lr.ph42.split.preheader:                         ; preds = %.lr.ph42.thread, %.lr.ph42
  %23 = phi i64 [ %18, %.lr.ph42.thread ], [ %21, %.lr.ph42 ]
  %24 = phi i64 [ %16, %.lr.ph42.thread ], [ %19, %.lr.ph42 ]
  %wide.trip.count49 = zext nneg i32 %0 to i64
  %25 = getelementptr i8, ptr %5, i64 -8
  br label %.lr.ph42.split

.lr.ph40.us.preheader:                            ; preds = %.lr.ph42
  %wide.trip.count59 = zext nneg i32 %0 to i64
  %wide.trip.count54 = zext nneg i32 %1 to i64
  br label %.lr.ph40.us

.lr.ph40.us:                                      ; preds = %.lr.ph40.us.preheader, %._crit_edge.us
  %indvars.iv56 = phi i64 [ 1, %.lr.ph40.us.preheader ], [ %indvars.iv.next57, %._crit_edge.us ]
  %gep.us = getelementptr ptr, ptr %invariant.gep, i64 %indvars.iv56
  %26 = load ptr, ptr %gep.us, align 8
  %27 = getelementptr inbounds ptr, ptr %26, i64 %19
  %28 = getelementptr inbounds ptr, ptr %5, i64 %indvars.iv56
  store ptr %27, ptr %28, align 8
  %29 = load ptr, ptr %26, align 8
  %30 = getelementptr inbounds %struct.t_complex, ptr %29, i64 %21
  store ptr %30, ptr %27, align 8
  br label %31

31:                                               ; preds = %.lr.ph40.us, %31
  %indvars.iv51 = phi i64 [ 1, %.lr.ph40.us ], [ %indvars.iv.next52, %31 ]
  %32 = load ptr, ptr %28, align 8
  %33 = getelementptr ptr, ptr %32, i64 %indvars.iv51
  %34 = getelementptr i8, ptr %33, i64 -8
  %35 = load ptr, ptr %34, align 8
  %36 = getelementptr inbounds %struct.t_complex, ptr %35, i64 %22
  store ptr %36, ptr %33, align 8
  %indvars.iv.next52 = add nuw nsw i64 %indvars.iv51, 1
  %exitcond55.not = icmp eq i64 %indvars.iv.next52, %wide.trip.count54
  br i1 %exitcond55.not, label %._crit_edge.us, label %31, !llvm.loop !8

._crit_edge.us:                                   ; preds = %31
  %indvars.iv.next57 = add nuw nsw i64 %indvars.iv56, 1
  %exitcond60.not = icmp eq i64 %indvars.iv.next57, %wide.trip.count59
  br i1 %exitcond60.not, label %._crit_edge43, label %.lr.ph40.us, !llvm.loop !9

37:                                               ; preds = %.lr.ph, %37
  %indvars.iv = phi i64 [ 1, %.lr.ph ], [ %indvars.iv.next, %37 ]
  %38 = load ptr, ptr %5, align 8
  %39 = getelementptr ptr, ptr %38, i64 %indvars.iv
  %40 = getelementptr i8, ptr %39, i64 -8
  %41 = load ptr, ptr %40, align 8
  %42 = getelementptr inbounds %struct.t_complex, ptr %41, i64 %13
  store ptr %42, ptr %39, align 8
  %indvars.iv.next = add nuw nsw i64 %indvars.iv, 1
  %exitcond.not = icmp eq i64 %indvars.iv.next, %wide.trip.count
  br i1 %exitcond.not, label %.preheader, label %37, !llvm.loop !10

.lr.ph42.split:                                   ; preds = %.lr.ph42.split.preheader, %.lr.ph42.split
  %indvars.iv46 = phi i64 [ 1, %.lr.ph42.split.preheader ], [ %indvars.iv.next47, %.lr.ph42.split ]
  %gep = getelementptr ptr, ptr %25, i64 %indvars.iv46
  %43 = load ptr, ptr %gep, align 8
  %44 = getelementptr inbounds ptr, ptr %43, i64 %24
  %45 = getelementptr inbounds ptr, ptr %5, i64 %indvars.iv46
  store ptr %44, ptr %45, align 8
  %46 = load ptr, ptr %43, align 8
  %47 = getelementptr inbounds %struct.t_complex, ptr %46, i64 %23
  store ptr %47, ptr %44, align 8
  %indvars.iv.next47 = add nuw nsw i64 %indvars.iv46, 1
  %exitcond50.not = icmp eq i64 %indvars.iv.next47, %wide.trip.count49
  br i1 %exitcond50.not, label %._crit_edge43, label %.lr.ph42.split, !llvm.loop !9

._crit_edge43:                                    ; preds = %.lr.ph42.split, %._crit_edge.us, %.preheader.thread, %.preheader
  ret ptr %5
}